target datalayout = "e-m:e-p270:32:32-p271:32:32-p272:64:64-i64:64-i128:128-f80:128-n8:16:32:64-S128"
target triple = "x86_64-unknown-linux-gnu"

; Function Attrs: mustprogress nounwind uwtable
define noundef i64 @_ZN8facebook5velox4util8fromTimeEiiii(i32 noundef %hour, i32 noundef %minute, i32 noundef %second, i32 noundef %microseconds) #0 {
entry:
  %hour.addr = alloca i32, align 4
  %minute.addr = alloca i32, align 4
  %second.addr = alloca i32, align 4
  %microseconds.addr = alloca i32, align 4
  %result = alloca i64, align 8
  store i32 %hour, ptr %hour.addr, align 4
  store i32 %minute, ptr %minute.addr, align 4
  store i32 %second, ptr %second.addr, align 4
  store i32 %microseconds, ptr %microseconds.addr, align 4
  %0 = load i32, ptr %hour.addr, align 4
  %conv = sext i32 %0 to i64
  store i64 %conv, ptr %result, align 8
  %1 = load i64, ptr %result, align 8
  %mul = mul nsw i64 %1, 60
  %2 = load i32, ptr %minute.addr, align 4
  %conv1 = sext i32 %2 to i64
  %add = add nsw i64 %mul, %conv1
  store i64 %add, ptr %result, align 8
  %3 = load i64, ptr %result, align 8
  %mul2 = mul nsw i64 %3, 60
  %4 = load i32, ptr %second.addr, align 4
  %conv3 = sext i32 %4 to i64
  %add4 = add nsw i64 %mul2, %conv3
  store i64 %add4, ptr %result, align 8
  %5 = load i64, ptr %result, align 8
  %mul5 = mul nsw i64 %5, 1000000
  %6 = load i32, ptr %microseconds.addr, align 4
  %conv6 = sext i32 %6 to i64
  %add7 = add nsw i64 %mul5, %conv6
  store i64 %add7, ptr %result, align 8
  %7 = load i64, ptr %result, align 8
  ret i64 %7
}