; Function Attrs: mustprogress nofree norecurse nosync nounwind willreturn memory(none) uwtable
define noundef range(i64 -7861937637475483648, 7861937633814483648) i64 @_ZN8facebook5velox4util8fromTimeEiiii(i32 noundef %hour, i32 noundef %minute, i32 noundef %second, i32 noundef %microseconds) local_unnamed_addr #0 {
entry:
  %conv = sext i32 %hour to i64
  %mul = mul nsw i64 %conv, 60
  %conv1 = sext i32 %minute to i64
  %add = add nsw i64 %mul, %conv1
  %mul2 = mul nsw i64 %add, 60
  %conv3 = sext i32 %second to i64
  %add4 = add nsw i64 %mul2, %conv3
  %mul5 = mul nsw i64 %add4, 1000000
  %conv6 = sext i32 %microseconds to i64
  %add7 = add nsw i64 %mul5, %conv6
  ret i64 %add7
}